; ModuleID = 'bench/openssl/original/cb.ll'
source_filename = "bench/openssl/original/cb.ll"
target datalayout = "e-m:e-p270:32:32-p271:32:32-p272:64:64-i64:64-i128:128-f80:128-n8:16:32:64-S128"
target triple = "x86_64-pc-linux-gnu"

@.str = private unnamed_addr constant [3 x i8] c"%s\00", align 1

; Function Attrs: nounwind uwtable
define i32 @openssl_error_cb(ptr noundef %0, i64 noundef %1, ptr noundef readnone captures(none) %2) local_unnamed_addr #0 {
  %4 = tail call i32 (ptr, ...) @test_printf_stderr(ptr noundef nonnull @.str, ptr noundef %0) #2
  ret i32 %4
}

declare i32 @test_printf_stderr(ptr noundef, ...) local_unnamed_addr #1


!llvm.module.flags = !{!0, !1, !2}

!0 = !{i32 1, !"wchar_size", i32 4}
!1 = !{i32 8, !"PIC Level", i32 2}
!2 = !{i32 7, !"uwtable", i32 2}
